; Function Attrs: nounwind uwtable
define i32 @ffurl_accept(ptr noundef %0, ptr noundef %1) local_unnamed_addr #3 {
  %3 = load ptr, ptr %1, align 8, !tbaa !41
  %.not = icmp eq ptr %3, null
  br i1 %.not, label %5, label %4

4:                                                ; preds = %2
  tail call void (ptr, i32, ptr, ...) @av_log(ptr noundef null, i32 noundef 0, ptr noundef nonnull @.str.2, ptr noundef nonnull @.str.12, ptr noundef nonnull @.str.4, i32 noundef 267) #12
  tail call void @abort() #14
  unreachable

5:                                                ; preds = %2
  %6 = getelementptr inbounds nuw i8, ptr %0, i64 8
  %7 = load ptr, ptr %6, align 8, !tbaa !21
  %8 = getelementptr inbounds nuw i8, ptr %7, i64 24
  %9 = load ptr, ptr %8, align 8, !tbaa !43
  %.not6 = icmp eq ptr %9, null
  br i1 %.not6, label %12, label %10

10:                                               ; preds = %5
  %11 = tail call i32 %9(ptr noundef nonnull %0, ptr noundef nonnull %1) #12
  br label %12

12:                                               ; preds = %5, %10
  %.0 = phi i32 [ %11, %10 ], [ -9, %5 ]
  ret i32 %.0
}